; Function Attrs: nounwind uwtable
define ptr @l___private_Lean_Elab_PreDefinition_MkInhabitant_0__Lean_Elab_mkInhabitantForAux_x3f___lambda__1___boxed(ptr noundef %0, ptr noundef %1, ptr noundef %2, ptr noundef %3, ptr noundef %4, ptr noundef %5, ptr noundef %6, ptr noundef %7, ptr noundef %8, ptr noundef %9, ptr noundef %10) #0 {
  %12 = ptrtoint ptr %4 to i64
  %13 = lshr i64 %12, 1
  %14 = trunc i64 %13 to i8
  %15 = and i64 %12, 1
  %.not = icmp eq i64 %15, 0
  br i1 %.not, label %16, label %lean_dec.exit16

16:                                               ; preds = %11
  %17 = load i32, ptr %4, align 4, !tbaa !4
  %18 = icmp sgt i32 %17, 1
  br i1 %18, label %19, label %21, !prof !11

19:                                               ; preds = %16
  %20 = add nsw i32 %17, -1
  store i32 %20, ptr %4, align 4, !tbaa !4
  br label %lean_dec.exit16

21:                                               ; preds = %16
  %.not.i = icmp eq i32 %17, 0
  br i1 %.not.i, label %lean_dec.exit16, label %22

22:                                               ; preds = %21
  tail call void @lean_dec_ref_cold(ptr noundef nonnull %4) #4
  br label %lean_dec.exit16

lean_dec.exit16:                                  ; preds = %22, %21, %19, %11
  %23 = tail call ptr @l_Array_append___rarg(ptr noundef %0, ptr noundef %1) #4
  %24 = tail call ptr @l_Array_append___rarg(ptr noundef %2, ptr noundef %5) #4
  %25 = tail call ptr @l___private_Lean_Elab_PreDefinition_MkInhabitant_0__Lean_Elab_mkInhabitantForAux_x3f(ptr noundef %23, ptr noundef %24, ptr noundef %3, i8 noundef zeroext %14, ptr noundef %6, ptr noundef %7, ptr noundef %8, ptr noundef %9, ptr noundef %10)
  %26 = ptrtoint ptr %5 to i64
  %27 = and i64 %26, 1
  %.not21 = icmp eq i64 %27, 0
  br i1 %.not21, label %28, label %lean_dec.exit15

28:                                               ; preds = %lean_dec.exit16
  %29 = load i32, ptr %5, align 4, !tbaa !4
  %30 = icmp sgt i32 %29, 1
  br i1 %30, label %31, label %33, !prof !11

31:                                               ; preds = %28
  %32 = add nsw i32 %29, -1
  store i32 %32, ptr %5, align 4, !tbaa !4
  br label %lean_dec.exit15

33:                                               ; preds = %28
  %.not.i17 = icmp eq i32 %29, 0
  br i1 %.not.i17, label %lean_dec.exit15, label %34

34:                                               ; preds = %33
  tail call void @lean_dec_ref_cold(ptr noundef nonnull %5) #4
  br label %lean_dec.exit15

lean_dec.exit15:                                  ; preds = %34, %33, %31, %lean_dec.exit16
  %35 = ptrtoint ptr %1 to i64
  %36 = and i64 %35, 1
  %.not22 = icmp eq i64 %36, 0
  br i1 %.not22, label %37, label %lean_dec.exit

37:                                               ; preds = %lean_dec.exit15
  %38 = load i32, ptr %1, align 4, !tbaa !4
  %39 = icmp sgt i32 %38, 1
  br i1 %39, label %40, label %42, !prof !11

40:                                               ; preds = %37
  %41 = add nsw i32 %38, -1
  store i32 %41, ptr %1, align 4, !tbaa !4
  br label %lean_dec.exit

42:                                               ; preds = %37
  %.not.i19 = icmp eq i32 %38, 0
  br i1 %.not.i19, label %lean_dec.exit, label %43

43:                                               ; preds = %42
  tail call void @lean_dec_ref_cold(ptr noundef nonnull %1) #4
  br label %lean_dec.exit

lean_dec.exit:                                    ; preds = %43, %42, %40, %lean_dec.exit15
  ret ptr %25
}